Certificate:
    Data:
        Version: 3 (0x2)
        Serial Number: 1 (0x1)
        Signature Algorithm: sha256WithRSAEncryption
        Issuer: CN=devcert
        Validity
            Not Before: Apr 28 01:05:46 2020 GMT
            Not After : Aug  1 01:05:46 2022 GMT
        Subject: CN=localhost
        Subject Public Key Info:
            Public Key Algorithm: rsaEncryption
                RSA Public-Key: (2048 bit)
                Modulus:
                    00:bf:d4:9e:36:00:54:1a:78:24:d5:54:51:a5:25:
                    dc:0a:90:f4:f3:f5:c4:b4:4f:aa:95:9b:ba:1d:19:
                    55:5b:fd:16:a7:73:c4:a0:2e:26:c9:9a:7c:ef:19:
                    e6:c7:26:12:81:5d:1e:eb:48:97:45:b7:2e:4b:c0:
                    6c:9b:9a:83:69:81:ed:87:ac:89:8a:ad:7b:84:be:
                    ac:92:b1:a5:84:c6:1b:c5:4d:f7:24:67:a6:83:ef:
                    ee:df:85:eb:64:f3:27:6b:7a:36:03:7b:a4:28:d6:
                    af:9f:5d:46:06:44:e3:34:e4:c3:87:29:f4:f1:43:
                    35:f6:34:dd:78:05:6e:a9:f3:4d:51:1b:d6:6b:82:
                    ad:ee:ac:14:bf:e0:aa:9d:0f:0d:6a:79:4c:ef:91:
                    94:a0:ad:25:60:fe:d2:f7:50:e4:a1:ea:81:27:48:
                    2a:64:a2:c4:38:36:34:61:f6:03:ef:cb:14:f4:25:
                    21:42:e1:a0:5b:30:0b:81:08:f9:9a:4b:c0:4f:9e:
                    93:66:41:90:e4:65:07:20:7f:83:bd:50:1e:3f:30:
                    33:b6:b9:c6:e6:16:70:1c:13:5e:12:82:28:a1:20:
                    10:5f:43:25:74:e0:d7:27:da:40:4c:17:79:db:46:
                    f4:1d:6a:10:c2:e1:c0:09:a0:f7:f1:c8:bc:fb:c3:
                    17:c9
                Exponent: 65537 (0x10001)
        X509v3 extensions:
            X509v3 Basic Constraints: critical
                CA:FALSE
            X509v3 Subject Key Identifier: 
                5F:90:06:F1:4B:46:5B:CC:1A:E8:A2:DC:B6:84:92:DE:1A:9F:17:A3
            X509v3 Authority Key Identifier: 
                keyid:AC:C2:36:93:E4:55:04:7A:0E:28:74:6E:F7:27:CF:A9:18:BE:B5:FA
                DirName:/CN=devcert
                serial:0C:7B:01:BE:20:F7:11:E3:DC:56:9D:C4:F1:FD:50:0F:F5:A1:FF:9C

            X509v3 Key Usage: critical
                Digital Signature, Key Encipherment
            X509v3 Extended Key Usage: 
                TLS Web Server Authentication
            X509v3 Subject Alternative Name: 
                DNS:localhost, DNS:*.localhost
    Signature Algorithm: sha256WithRSAEncryption
         62:35:8a:3c:ee:d0:f4:81:dd:a5:42:b7:9d:70:ab:97:23:d4:
         75:1d:fd:e4:01:17:46:bb:1f:94:5f:e8:80:ef:9a:52:1e:89:
         d9:8f:83:9d:13:eb:5a:57:7f:85:cd:b4:f0:ad:dc:9c:d0:4d:
         46:3d:92:fc:10:e4:b7:ab:05:e3:59:25:7a:0f:9b:14:9e:46:
         f1:bb:24:de:ed:6d:16:ac:00:2a:69:f9:0c:ad:b4:01:f6:50:
         a0:78:77:d2:e3:53:f2:99:ec:dd:f8:18:45:86:2c:2d:44:65:
         ce:9b:5f:d7:db:13:2c:0d:7a:77:b9:48:16:95:18:9e:cb:af:
         93:ac:67:8b:fa:03:84:d7:3c:61:03:60:86:de:b3:49:90:90:
         0c:a7:67:03:3b:b3:88:46:7f:dc:c1:e2:8a:a0:8b:de:57:77:
         28:d1:d2:cd:a5:aa:47:87:51:ae:60:34:d6:e1:81:31:52:f2:
         1a:f2:29:e4:c7:bc:df:35:ae:65:06:1b:5d:40:4a:6a:63:06:
         b9:ee:fd:31:dc:ac:90:b0:3c:30:3c:61:eb:f6:6a:df:32:c0:
         65:78:a8:07:04:00:c7:d3:15:cd:18:c0:d2:b4:c2:2d:05:9c:
         35:f3:f2:c7:7d:c2:86:36:31:f0:b5:f6:fd:4f:61:84:48:8c:
         12:c4:77:89
-----BEGIN CERTIFICATE-----
MIIDaTCCAlGgAwIBAgIBATANBgkqhkiG9w0BAQsFADASMRAwDgYDVQQDDAdkZXZj
ZXJ0MB4XDTIwMDQyODAxMDU0NloXDTIyMDgwMTAxMDU0NlowFDESMBAGA1UEAwwJ
bG9jYWxob3N0MIIBIjANBgkqhkiG9w0BAQEFAAOCAQ8AMIIBCgKCAQEAv9SeNgBU
Gngk1VRRpSXcCpD08/XEtE+qlZu6HRlVW/0Wp3PEoC4myZp87xnmxyYSgV0e60iX
RbcuS8Bsm5qDaYHth6yJiq17hL6skrGlhMYbxU33JGemg+/u34XrZPMna3o2A3uk
KNavn11GBkTjNOTDhyn08UM19jTdeAVuqfNNURvWa4Kt7qwUv+CqnQ8NanlM75GU
oK0lYP7S91DkoeqBJ0gqZKLEODY0YfYD78sU9CUhQuGgWzALgQj5mkvAT56TZkGQ
5GUHIH+DvVAePzAztrnG5hZwHBNeEoIooSAQX0MldODXJ9pATBd520b0HWoQwuHA
CaD38ci8+8MXyQIDAQABo4HHMIHEMAwGA1UdEwEB/wQCMAAwHQYDVR0OBBYEFF+Q
BvFLRlvMGuii3LaEkt4anxejME0GA1UdIwRGMESAFKzCNpPkVQR6Dih0bvcnz6kY
vrX6oRakFDASMRAwDgYDVQQDDAdkZXZjZXJ0ghQMewG+IPcR49xWncTx/VAP9aH/
nDAOBgNVHQ8BAf8EBAMCBaAwEwYDVR0lBAwwCgYIKwYBBQUHAwEwIQYDVR0RBBow
GIIJbG9jYWxob3N0ggsqLmxvY2FsaG9zdDANBgkqhkiG9w0BAQsFAAOCAQEAYjWK
PO7Q9IHdpUK3nXCrlyPUdR395AEXRrsflF/ogO+aUh6J2Y+DnRPrWld/hc208K3c
nNBNRj2S/BDkt6sF41kleg+bFJ5G8bsk3u1tFqwAKmn5DK20AfZQoHh30uNT8pns
3fgYRYYsLURlzptf19sTLA16d7lIFpUYnsuvk6xni/oDhNc8YQNght6zSZCQDKdn
AzuziEZ/3MHiiqCL3ld3KNHSzaWqR4dRrmA01uGBMVLyGvIp5Me83zWuZQYbXUBK
amMGue79MdyskLA8MDxh6/Zq3zLAZXioBwQAx9MVzRjA0rTCLQWcNfPyx33ChjYx
8LX2/U9hhEiMEsR3iQ==
-----END CERTIFICATE-----
